
main.elf:     file format elf32-littlearm


Disassembly of section .text:

00000000 <__vectors>:
       0:	00 40 01 20 49 0b 00 00 00 00 00 00 00 00 00 00     .@. I...........
	...

00000020 <switch_from_to>:
      20:	b5f0      	push	{r4, r5, r6, r7, lr}
      22:	4642      	mov	r2, r8
      24:	464b      	mov	r3, r9
      26:	4654      	mov	r4, sl
      28:	465d      	mov	r5, fp
      2a:	4666      	mov	r6, ip
      2c:	b47c      	push	{r2, r3, r4, r5, r6}
      2e:	466a      	mov	r2, sp
      30:	6002      	str	r2, [r0, #0]
      32:	468d      	mov	sp, r1
      34:	bc7c      	pop	{r2, r3, r4, r5, r6}
      36:	46b4      	mov	ip, r6
      38:	46ab      	mov	fp, r5
      3a:	46a2      	mov	sl, r4
      3c:	4699      	mov	r9, r3
      3e:	4690      	mov	r8, r2
      40:	bdf0      	pop	{r4, r5, r6, r7, pc}
      42:	46c0      	nop			; (mov r8, r8)

00000044 <_ZN6sam3xa10SystemInitEv>:
      44:	f44f 6380 	mov.w	r3, #1024	; 0x400
      48:	4a16      	ldr	r2, [pc, #88]	; (a4 <_ZN6sam3xa10SystemInitEv+0x60>)
      4a:	6013      	str	r3, [r2, #0]
      4c:	f8c2 3200 	str.w	r3, [r2, #512]	; 0x200
      50:	4b15      	ldr	r3, [pc, #84]	; (a8 <_ZN6sam3xa10SystemInitEv+0x64>)
      52:	6a1a      	ldr	r2, [r3, #32]
      54:	01d2      	lsls	r2, r2, #7
      56:	d404      	bmi.n	62 <_ZN6sam3xa10SystemInitEv+0x1e>
      58:	4a14      	ldr	r2, [pc, #80]	; (ac <_ZN6sam3xa10SystemInitEv+0x68>)
      5a:	621a      	str	r2, [r3, #32]
      5c:	6e9a      	ldr	r2, [r3, #104]	; 0x68
      5e:	07d0      	lsls	r0, r2, #31
      60:	d5fc      	bpl.n	5c <_ZN6sam3xa10SystemInitEv+0x18>
      62:	4a13      	ldr	r2, [pc, #76]	; (b0 <_ZN6sam3xa10SystemInitEv+0x6c>)
      64:	621a      	str	r2, [r3, #32]
      66:	6e9a      	ldr	r2, [r3, #104]	; 0x68
      68:	03d1      	lsls	r1, r2, #15
      6a:	d5fc      	bpl.n	66 <_ZN6sam3xa10SystemInitEv+0x22>
      6c:	6b1a      	ldr	r2, [r3, #48]	; 0x30
      6e:	f022 0203 	bic.w	r2, r2, #3
      72:	f042 0201 	orr.w	r2, r2, #1
      76:	631a      	str	r2, [r3, #48]	; 0x30
      78:	6e9a      	ldr	r2, [r3, #104]	; 0x68
      7a:	0712      	lsls	r2, r2, #28
      7c:	d5fc      	bpl.n	78 <_ZN6sam3xa10SystemInitEv+0x34>
      7e:	4a0d      	ldr	r2, [pc, #52]	; (b4 <_ZN6sam3xa10SystemInitEv+0x70>)
      80:	629a      	str	r2, [r3, #40]	; 0x28
      82:	6e9a      	ldr	r2, [r3, #104]	; 0x68
      84:	0790      	lsls	r0, r2, #30
      86:	d5fc      	bpl.n	82 <_ZN6sam3xa10SystemInitEv+0x3e>
      88:	2211      	movs	r2, #17
      8a:	631a      	str	r2, [r3, #48]	; 0x30
      8c:	6e9a      	ldr	r2, [r3, #104]	; 0x68
      8e:	0711      	lsls	r1, r2, #28
      90:	d5fc      	bpl.n	8c <_ZN6sam3xa10SystemInitEv+0x48>
      92:	2212      	movs	r2, #18
      94:	631a      	str	r2, [r3, #48]	; 0x30
      96:	6e9a      	ldr	r2, [r3, #104]	; 0x68
      98:	0712      	lsls	r2, r2, #28
      9a:	d5fc      	bpl.n	96 <_ZN6sam3xa10SystemInitEv+0x52>
      9c:	4b06      	ldr	r3, [pc, #24]	; (b8 <_ZN6sam3xa10SystemInitEv+0x74>)
      9e:	4a07      	ldr	r2, [pc, #28]	; (bc <_ZN6sam3xa10SystemInitEv+0x78>)
      a0:	601a      	str	r2, [r3, #0]
      a2:	4770      	bx	lr
      a4:	400e0a00 	.word	0x400e0a00
      a8:	400e0600 	.word	0x400e0600
      ac:	00370809 	.word	0x00370809
      b0:	01370809 	.word	0x01370809
      b4:	200d3f01 	.word	0x200d3f01
      b8:	20014034 	.word	0x20014034
      bc:	0501bd00 	.word	0x0501bd00

000000c0 <_ZN3due8pin_infoENS_4pinsE>:
      c0:	2851      	cmp	r0, #81	; 0x51
      c2:	b508      	push	{r3, lr}
      c4:	d903      	bls.n	ce <_ZN3due8pin_infoENS_4pinsE+0xe>
      c6:	21ba      	movs	r1, #186	; 0xba
      c8:	4803      	ldr	r0, [pc, #12]	; (d8 <_ZN3due8pin_infoENS_4pinsE+0x18>)
      ca:	f000 f9dc 	bl	486 <_ZN5hwlib5panicEPKcj>
      ce:	4b03      	ldr	r3, [pc, #12]	; (dc <_ZN3due8pin_infoENS_4pinsE+0x1c>)
      d0:	eb03 0040 	add.w	r0, r3, r0, lsl #1
      d4:	bd08      	pop	{r3, pc}
      d6:	bf00      	nop
      d8:	00000e94 	.word	0x00000e94
      dc:	00000ec6 	.word	0x00000ec6

000000e0 <_ZN3due14port_registersEm>:
      e0:	f44f 4200 	mov.w	r2, #32768	; 0x8000
      e4:	b508      	push	{r3, lr}
      e6:	4b0d      	ldr	r3, [pc, #52]	; (11c <_ZN3due14port_registersEm+0x3c>)
      e8:	605a      	str	r2, [r3, #4]
      ea:	f44f 32fc 	mov.w	r2, #129024	; 0x1f800
      ee:	f5a3 53a2 	sub.w	r3, r3, #5184	; 0x1440
      f2:	3b10      	subs	r3, #16
      f4:	611a      	str	r2, [r3, #16]
      f6:	2803      	cmp	r0, #3
      f8:	d807      	bhi.n	10a <_ZN3due14port_registersEm+0x2a>
      fa:	e8df f000 	tbb	[pc, r0]
      fe:	020b      	.short	0x020b
     100:	040d      	.short	0x040d
     102:	4807      	ldr	r0, [pc, #28]	; (120 <_ZN3due14port_registersEm+0x40>)
     104:	bd08      	pop	{r3, pc}
     106:	4807      	ldr	r0, [pc, #28]	; (124 <_ZN3due14port_registersEm+0x44>)
     108:	e7fc      	b.n	104 <_ZN3due14port_registersEm+0x24>
     10a:	f44f 7191 	mov.w	r1, #290	; 0x122
     10e:	4806      	ldr	r0, [pc, #24]	; (128 <_ZN3due14port_registersEm+0x48>)
     110:	f000 f9b9 	bl	486 <_ZN5hwlib5panicEPKcj>
     114:	4805      	ldr	r0, [pc, #20]	; (12c <_ZN3due14port_registersEm+0x4c>)
     116:	e7f5      	b.n	104 <_ZN3due14port_registersEm+0x24>
     118:	4805      	ldr	r0, [pc, #20]	; (130 <_ZN3due14port_registersEm+0x50>)
     11a:	e7f3      	b.n	104 <_ZN3due14port_registersEm+0x24>
     11c:	400e1a50 	.word	0x400e1a50
     120:	400e1000 	.word	0x400e1000
     124:	400e1400 	.word	0x400e1400
     128:	00000e94 	.word	0x00000e94
     12c:	400e0e00 	.word	0x400e0e00
     130:	400e1200 	.word	0x400e1200

00000134 <_ZN3due12ticks_per_usEv>:
     134:	2054      	movs	r0, #84	; 0x54
     136:	2100      	movs	r1, #0
     138:	4770      	bx	lr
	...

0000013c <_ZN3due9now_ticksEv>:
     13c:	b570      	push	{r4, r5, r6, lr}
     13e:	4d19      	ldr	r5, [pc, #100]	; (1a4 <_ZN3due9now_ticksEv+0x68>)
     140:	782c      	ldrb	r4, [r5, #0]
     142:	b9ac      	cbnz	r4, 170 <_ZN3due9now_ticksEv+0x34>
     144:	f44f 4200 	mov.w	r2, #32768	; 0x8000
     148:	4b17      	ldr	r3, [pc, #92]	; (1a8 <_ZN3due9now_ticksEv+0x6c>)
     14a:	605a      	str	r2, [r3, #4]
     14c:	f7ff ff7a 	bl	44 <_ZN6sam3xa10SystemInitEv>
     150:	f44f 6380 	mov.w	r3, #1024	; 0x400
     154:	4a15      	ldr	r2, [pc, #84]	; (1ac <_ZN3due9now_ticksEv+0x70>)
     156:	6013      	str	r3, [r2, #0]
     158:	f8c2 3200 	str.w	r3, [r2, #512]	; 0x200
     15c:	f06f 427f 	mvn.w	r2, #4278190080	; 0xff000000
     160:	4b13      	ldr	r3, [pc, #76]	; (1b0 <_ZN3due9now_ticksEv+0x74>)
     162:	601c      	str	r4, [r3, #0]
     164:	605a      	str	r2, [r3, #4]
     166:	2205      	movs	r2, #5
     168:	609c      	str	r4, [r3, #8]
     16a:	601a      	str	r2, [r3, #0]
     16c:	2301      	movs	r3, #1
     16e:	702b      	strb	r3, [r5, #0]
     170:	4b0f      	ldr	r3, [pc, #60]	; (1b0 <_ZN3due9now_ticksEv+0x74>)
     172:	4a10      	ldr	r2, [pc, #64]	; (1b4 <_ZN3due9now_ticksEv+0x78>)
     174:	689b      	ldr	r3, [r3, #8]
     176:	6811      	ldr	r1, [r2, #0]
     178:	43db      	mvns	r3, r3
     17a:	f023 437f 	bic.w	r3, r3, #4278190080	; 0xff000000
     17e:	4299      	cmp	r1, r3
     180:	4c0d      	ldr	r4, [pc, #52]	; (1b8 <_ZN3due9now_ticksEv+0x7c>)
     182:	d907      	bls.n	194 <_ZN3due9now_ticksEv+0x58>
     184:	e9d4 0100 	ldrd	r0, r1, [r4]
     188:	f110 7580 	adds.w	r5, r0, #16777216	; 0x1000000
     18c:	f141 0600 	adc.w	r6, r1, #0
     190:	e9c4 5600 	strd	r5, r6, [r4]
     194:	e9d4 4500 	ldrd	r4, r5, [r4]
     198:	6013      	str	r3, [r2, #0]
     19a:	ea44 0003 	orr.w	r0, r4, r3
     19e:	4629      	mov	r1, r5
     1a0:	bd70      	pop	{r4, r5, r6, pc}
     1a2:	bf00      	nop
     1a4:	20014014 	.word	0x20014014
     1a8:	400e1a50 	.word	0x400e1a50
     1ac:	400e0a00 	.word	0x400e0a00
     1b0:	e000e010 	.word	0xe000e010
     1b4:	20014010 	.word	0x20014010
     1b8:	20014008 	.word	0x20014008

000001bc <_ZN5hwlib9uart_putcEc>:
     1bc:	f000 b9c4 	b.w	548 <_ZN3due9uart_putcEc>

000001c0 <_ZN5hwlib7ostreamlsEc>:
     1c0:	b510      	push	{r4, lr}
     1c2:	4604      	mov	r4, r0
     1c4:	6803      	ldr	r3, [r0, #0]
     1c6:	681b      	ldr	r3, [r3, #0]
     1c8:	4798      	blx	r3
     1ca:	4620      	mov	r0, r4
     1cc:	bd10      	pop	{r4, pc}

000001ce <_ZN5hwliblsERNS_7ostreamEPKc>:
     1ce:	7b83      	ldrb	r3, [r0, #14]
     1d0:	b570      	push	{r4, r5, r6, lr}
     1d2:	4604      	mov	r4, r0
     1d4:	460e      	mov	r6, r1
     1d6:	b93b      	cbnz	r3, 1e8 <_ZN5hwliblsERNS_7ostreamEPKc+0x1a>
     1d8:	1e75      	subs	r5, r6, #1
     1da:	f815 1f01 	ldrb.w	r1, [r5, #1]!
     1de:	b199      	cbz	r1, 208 <_ZN5hwliblsERNS_7ostreamEPKc+0x3a>
     1e0:	4620      	mov	r0, r4
     1e2:	f7ff ffed 	bl	1c0 <_ZN5hwlib7ostreamlsEc>
     1e6:	e7f8      	b.n	1da <_ZN5hwliblsERNS_7ostreamEPKc+0xc>
     1e8:	460b      	mov	r3, r1
     1ea:	6845      	ldr	r5, [r0, #4]
     1ec:	1b9a      	subs	r2, r3, r6
     1ee:	f813 1b01 	ldrb.w	r1, [r3], #1
     1f2:	2900      	cmp	r1, #0
     1f4:	d1fa      	bne.n	1ec <_ZN5hwliblsERNS_7ostreamEPKc+0x1e>
     1f6:	1aad      	subs	r5, r5, r2
     1f8:	2d00      	cmp	r5, #0
     1fa:	dded      	ble.n	1d8 <_ZN5hwliblsERNS_7ostreamEPKc+0xa>
     1fc:	7b21      	ldrb	r1, [r4, #12]
     1fe:	4620      	mov	r0, r4
     200:	f7ff ffde 	bl	1c0 <_ZN5hwlib7ostreamlsEc>
     204:	3d01      	subs	r5, #1
     206:	e7f7      	b.n	1f8 <_ZN5hwliblsERNS_7ostreamEPKc+0x2a>
     208:	7ba3      	ldrb	r3, [r4, #14]
     20a:	b97b      	cbnz	r3, 22c <_ZN5hwliblsERNS_7ostreamEPKc+0x5e>
     20c:	4633      	mov	r3, r6
     20e:	6865      	ldr	r5, [r4, #4]
     210:	1b9a      	subs	r2, r3, r6
     212:	f813 1b01 	ldrb.w	r1, [r3], #1
     216:	2900      	cmp	r1, #0
     218:	d1fa      	bne.n	210 <_ZN5hwliblsERNS_7ostreamEPKc+0x42>
     21a:	1aad      	subs	r5, r5, r2
     21c:	2d00      	cmp	r5, #0
     21e:	dd05      	ble.n	22c <_ZN5hwliblsERNS_7ostreamEPKc+0x5e>
     220:	7b21      	ldrb	r1, [r4, #12]
     222:	4620      	mov	r0, r4
     224:	f7ff ffcc 	bl	1c0 <_ZN5hwlib7ostreamlsEc>
     228:	3d01      	subs	r5, #1
     22a:	e7f7      	b.n	21c <_ZN5hwliblsERNS_7ostreamEPKc+0x4e>
     22c:	2300      	movs	r3, #0
     22e:	4620      	mov	r0, r4
     230:	6063      	str	r3, [r4, #4]
     232:	bd70      	pop	{r4, r5, r6, pc}

00000234 <_ZN4rtos9task_base7releaseEv>:
     234:	4b05      	ldr	r3, [pc, #20]	; (24c <_ZN4rtos9task_base7releaseEv+0x18>)
     236:	781b      	ldrb	r3, [r3, #0]
     238:	b133      	cbz	r3, 248 <_ZN4rtos9task_base7releaseEv+0x14>
     23a:	4a05      	ldr	r2, [pc, #20]	; (250 <_ZN4rtos9task_base7releaseEv+0x1c>)
     23c:	4b05      	ldr	r3, [pc, #20]	; (254 <_ZN4rtos9task_base7releaseEv+0x20>)
     23e:	6810      	ldr	r0, [r2, #0]
     240:	6819      	ldr	r1, [r3, #0]
     242:	6013      	str	r3, [r2, #0]
     244:	f7ff beec 	b.w	20 <switch_from_to>
     248:	4770      	bx	lr
     24a:	bf00      	nop
     24c:	2001401c 	.word	0x2001401c
     250:	20014030 	.word	0x20014030
     254:	20014000 	.word	0x20014000

00000258 <_ZN4rtos9task_base5blockEv>:
     258:	4a14      	ldr	r2, [pc, #80]	; (2ac <_ZN4rtos9task_base5blockEv+0x54>)
     25a:	b508      	push	{r3, lr}
     25c:	7812      	ldrb	r2, [r2, #0]
     25e:	b31a      	cbz	r2, 2a8 <_ZN4rtos9task_base5blockEv+0x50>
     260:	4a13      	ldr	r2, [pc, #76]	; (2b0 <_ZN4rtos9task_base5blockEv+0x58>)
     262:	6812      	ldr	r2, [r2, #0]
     264:	4290      	cmp	r0, r2
     266:	d00a      	beq.n	27e <_ZN4rtos9task_base5blockEv+0x26>
     268:	4912      	ldr	r1, [pc, #72]	; (2b4 <_ZN4rtos9task_base5blockEv+0x5c>)
     26a:	4813      	ldr	r0, [pc, #76]	; (2b8 <_ZN4rtos9task_base5blockEv+0x60>)
     26c:	f7ff ffaf 	bl	1ce <_ZN5hwliblsERNS_7ostreamEPKc>
     270:	4912      	ldr	r1, [pc, #72]	; (2bc <_ZN4rtos9task_base5blockEv+0x64>)
     272:	f7ff ffac 	bl	1ce <_ZN5hwliblsERNS_7ostreamEPKc>
     276:	4912      	ldr	r1, [pc, #72]	; (2c0 <_ZN4rtos9task_base5blockEv+0x68>)
     278:	f7ff ffa9 	bl	1ce <_ZN5hwliblsERNS_7ostreamEPKc>
     27c:	e7fe      	b.n	27c <_ZN4rtos9task_base5blockEv+0x24>
     27e:	7a41      	ldrb	r1, [r0, #9]
     280:	7a02      	ldrb	r2, [r0, #8]
     282:	b931      	cbnz	r1, 292 <_ZN4rtos9task_base5blockEv+0x3a>
     284:	b92a      	cbnz	r2, 292 <_ZN4rtos9task_base5blockEv+0x3a>
     286:	e8bd 4008 	ldmia.w	sp!, {r3, lr}
     28a:	2201      	movs	r2, #1
     28c:	7202      	strb	r2, [r0, #8]
     28e:	f7ff bfd1 	b.w	234 <_ZN4rtos9task_base7releaseEv>
     292:	4908      	ldr	r1, [pc, #32]	; (2b4 <_ZN4rtos9task_base5blockEv+0x5c>)
     294:	4808      	ldr	r0, [pc, #32]	; (2b8 <_ZN4rtos9task_base5blockEv+0x60>)
     296:	f7ff ff9a 	bl	1ce <_ZN5hwliblsERNS_7ostreamEPKc>
     29a:	490a      	ldr	r1, [pc, #40]	; (2c4 <_ZN4rtos9task_base5blockEv+0x6c>)
     29c:	f7ff ff97 	bl	1ce <_ZN5hwliblsERNS_7ostreamEPKc>
     2a0:	4907      	ldr	r1, [pc, #28]	; (2c0 <_ZN4rtos9task_base5blockEv+0x68>)
     2a2:	f7ff ff94 	bl	1ce <_ZN5hwliblsERNS_7ostreamEPKc>
     2a6:	e7fe      	b.n	2a6 <_ZN4rtos9task_base5blockEv+0x4e>
     2a8:	bd08      	pop	{r3, pc}
     2aa:	bf00      	nop
     2ac:	2001401c 	.word	0x2001401c
     2b0:	20014018 	.word	0x20014018
     2b4:	00000f6a 	.word	0x00000f6a
     2b8:	20014044 	.word	0x20014044
     2bc:	00000f7c 	.word	0x00000f7c
     2c0:	00001043 	.word	0x00001043
     2c4:	00000f97 	.word	0x00000f97

000002c8 <_ZN4rtos12waitable_set4waitEj>:
     2c8:	b5f8      	push	{r3, r4, r5, r6, r7, lr}
     2ca:	4605      	mov	r5, r0
     2cc:	460c      	mov	r4, r1
     2ce:	4616      	mov	r6, r2
     2d0:	2700      	movs	r7, #0
     2d2:	2300      	movs	r3, #0
     2d4:	68e2      	ldr	r2, [r4, #12]
     2d6:	429a      	cmp	r2, r3
     2d8:	d01f      	beq.n	31a <_ZN4rtos12waitable_set4waitEj+0x52>
     2da:	6861      	ldr	r1, [r4, #4]
     2dc:	ea01 0006 	and.w	r0, r1, r6
     2e0:	40d8      	lsrs	r0, r3
     2e2:	07c0      	lsls	r0, r0, #31
     2e4:	d517      	bpl.n	316 <_ZN4rtos12waitable_set4waitEj+0x4e>
     2e6:	2201      	movs	r2, #1
     2e8:	409a      	lsls	r2, r3
     2ea:	4b0f      	ldr	r3, [pc, #60]	; (328 <_ZN4rtos12waitable_set4waitEj+0x60>)
     2ec:	ea21 0102 	bic.w	r1, r1, r2
     2f0:	681b      	ldr	r3, [r3, #0]
     2f2:	6820      	ldr	r0, [r4, #0]
     2f4:	6061      	str	r1, [r4, #4]
     2f6:	b143      	cbz	r3, 30a <_ZN4rtos12waitable_set4waitEj+0x42>
     2f8:	6859      	ldr	r1, [r3, #4]
     2fa:	4281      	cmp	r1, r0
     2fc:	d109      	bne.n	312 <_ZN4rtos12waitable_set4waitEj+0x4a>
     2fe:	6899      	ldr	r1, [r3, #8]
     300:	428a      	cmp	r2, r1
     302:	d106      	bne.n	312 <_ZN4rtos12waitable_set4waitEj+0x4a>
     304:	6999      	ldr	r1, [r3, #24]
     306:	3101      	adds	r1, #1
     308:	6199      	str	r1, [r3, #24]
     30a:	e9c5 0200 	strd	r0, r2, [r5]
     30e:	4628      	mov	r0, r5
     310:	bdf8      	pop	{r3, r4, r5, r6, r7, pc}
     312:	691b      	ldr	r3, [r3, #16]
     314:	e7ef      	b.n	2f6 <_ZN4rtos12waitable_set4waitEj+0x2e>
     316:	3301      	adds	r3, #1
     318:	e7dd      	b.n	2d6 <_ZN4rtos12waitable_set4waitEj+0xe>
     31a:	60a6      	str	r6, [r4, #8]
     31c:	6820      	ldr	r0, [r4, #0]
     31e:	f7ff ff9b 	bl	258 <_ZN4rtos9task_base5blockEv>
     322:	60a7      	str	r7, [r4, #8]
     324:	e7d5      	b.n	2d2 <_ZN4rtos12waitable_set4waitEj+0xa>
     326:	bf00      	nop
     328:	20014020 	.word	0x20014020

0000032c <_ZN5hwlib7wait_usEi>:
     32c:	4b0c      	ldr	r3, [pc, #48]	; (360 <_ZN5hwlib7wait_usEi+0x34>)
     32e:	b507      	push	{r0, r1, r2, lr}
     330:	781b      	ldrb	r3, [r3, #0]
     332:	b17b      	cbz	r3, 354 <_ZN5hwlib7wait_usEi+0x28>
     334:	4b0b      	ldr	r3, [pc, #44]	; (364 <_ZN5hwlib7wait_usEi+0x38>)
     336:	6819      	ldr	r1, [r3, #0]
     338:	6d0b      	ldr	r3, [r1, #80]	; 0x50
     33a:	6408      	str	r0, [r1, #64]	; 0x40
     33c:	3301      	adds	r3, #1
     33e:	650b      	str	r3, [r1, #80]	; 0x50
     340:	2300      	movs	r3, #0
     342:	6b0a      	ldr	r2, [r1, #48]	; 0x30
     344:	644b      	str	r3, [r1, #68]	; 0x44
     346:	4668      	mov	r0, sp
     348:	3114      	adds	r1, #20
     34a:	f7ff ffbd 	bl	2c8 <_ZN4rtos12waitable_set4waitEj>
     34e:	b003      	add	sp, #12
     350:	f85d fb04 	ldr.w	pc, [sp], #4
     354:	b003      	add	sp, #12
     356:	f85d eb04 	ldr.w	lr, [sp], #4
     35a:	f000 b918 	b.w	58e <_ZN5hwlib12wait_us_busyEi>
     35e:	bf00      	nop
     360:	2001401c 	.word	0x2001401c
     364:	20014018 	.word	0x20014018

00000368 <_ZN5hwlib7wait_msEi>:
     368:	b510      	push	{r4, lr}
     36a:	4604      	mov	r4, r0
     36c:	2c00      	cmp	r4, #0
     36e:	dd05      	ble.n	37c <_ZN5hwlib7wait_msEi+0x14>
     370:	f44f 707a 	mov.w	r0, #1000	; 0x3e8
     374:	f7ff ffda 	bl	32c <_ZN5hwlib7wait_usEi>
     378:	3c01      	subs	r4, #1
     37a:	e7f7      	b.n	36c <_ZN5hwlib7wait_msEi+0x4>
     37c:	bd10      	pop	{r4, pc}

0000037e <_ZN5hwlib14pin_in_dummy_t4readEv>:
     37e:	2000      	movs	r0, #0
     380:	4770      	bx	lr

00000382 <_ZN5hwlib14pin_in_dummy_t7refreshEv>:
     382:	4770      	bx	lr

00000384 <_ZN5hwlib15pin_out_dummy_t5writeEb>:
     384:	4770      	bx	lr

00000386 <_ZN5hwlib15pin_out_dummy_t5flushEv>:
     386:	4770      	bx	lr

00000388 <_ZN5hwlib20pin_direct_from_in_t4readEv>:
     388:	b510      	push	{r4, lr}
     38a:	4604      	mov	r4, r0
     38c:	6840      	ldr	r0, [r0, #4]
     38e:	6803      	ldr	r3, [r0, #0]
     390:	685b      	ldr	r3, [r3, #4]
     392:	4798      	blx	r3
     394:	6860      	ldr	r0, [r4, #4]
     396:	e8bd 4010 	ldmia.w	sp!, {r4, lr}
     39a:	6803      	ldr	r3, [r0, #0]
     39c:	681b      	ldr	r3, [r3, #0]
     39e:	4718      	bx	r3

000003a0 <_ZN5hwlib20pin_direct_from_in_t7refreshEv>:
     3a0:	4770      	bx	lr

000003a2 <_ZN5hwlib21pin_direct_from_out_t5writeEb>:
     3a2:	b510      	push	{r4, lr}
     3a4:	4604      	mov	r4, r0
     3a6:	6840      	ldr	r0, [r0, #4]
     3a8:	6803      	ldr	r3, [r0, #0]
     3aa:	681b      	ldr	r3, [r3, #0]
     3ac:	4798      	blx	r3
     3ae:	6860      	ldr	r0, [r4, #4]
     3b0:	e8bd 4010 	ldmia.w	sp!, {r4, lr}
     3b4:	6803      	ldr	r3, [r0, #0]
     3b6:	685b      	ldr	r3, [r3, #4]
     3b8:	4718      	bx	r3

000003ba <_ZN5hwlib21pin_direct_from_out_t5flushEv>:
     3ba:	4770      	bx	lr

000003bc <_ZN5hwlib20cout_using_uart_putc5flushEv>:
     3bc:	4770      	bx	lr

000003be <_ZN5hwlib6window20clear_implementationENS_5colorE>:
     3be:	e92d 4ff0 	stmdb	sp!, {r4, r5, r6, r7, r8, r9, sl, fp, lr}
     3c2:	4604      	mov	r4, r0
     3c4:	2600      	movs	r6, #0
     3c6:	b087      	sub	sp, #28
     3c8:	af06      	add	r7, sp, #24
     3ca:	f847 1d14 	str.w	r1, [r7, #-20]!
     3ce:	6843      	ldr	r3, [r0, #4]
     3d0:	f8d0 9008 	ldr.w	r9, [r0, #8]
     3d4:	9300      	str	r3, [sp, #0]
     3d6:	f100 0a0c 	add.w	sl, r0, #12
     3da:	f10d 0810 	add.w	r8, sp, #16
     3de:	2500      	movs	r5, #0
     3e0:	b90d      	cbnz	r5, 3e6 <_ZN5hwlib6window20clear_implementationENS_5colorE+0x28>
     3e2:	45b1      	cmp	r9, r6
     3e4:	d021      	beq.n	42a <_ZN5hwlib6window20clear_implementationENS_5colorE+0x6c>
     3e6:	6823      	ldr	r3, [r4, #0]
     3e8:	e9cd 5604 	strd	r5, r6, [sp, #16]
     3ec:	f8d3 b000 	ldr.w	fp, [r3]
     3f0:	f89d 3004 	ldrb.w	r3, [sp, #4]
     3f4:	3501      	adds	r5, #1
     3f6:	2b02      	cmp	r3, #2
     3f8:	bf14      	ite	ne
     3fa:	463b      	movne	r3, r7
     3fc:	4653      	moveq	r3, sl
     3fe:	7858      	ldrb	r0, [r3, #1]
     400:	7899      	ldrb	r1, [r3, #2]
     402:	78da      	ldrb	r2, [r3, #3]
     404:	781b      	ldrb	r3, [r3, #0]
     406:	f88d 000d 	strb.w	r0, [sp, #13]
     40a:	f88d 100e 	strb.w	r1, [sp, #14]
     40e:	f88d 200f 	strb.w	r2, [sp, #15]
     412:	f88d 300c 	strb.w	r3, [sp, #12]
     416:	9b03      	ldr	r3, [sp, #12]
     418:	e898 0006 	ldmia.w	r8, {r1, r2}
     41c:	4620      	mov	r0, r4
     41e:	47d8      	blx	fp
     420:	9b00      	ldr	r3, [sp, #0]
     422:	42ab      	cmp	r3, r5
     424:	d1dc      	bne.n	3e0 <_ZN5hwlib6window20clear_implementationENS_5colorE+0x22>
     426:	3601      	adds	r6, #1
     428:	e7d9      	b.n	3de <_ZN5hwlib6window20clear_implementationENS_5colorE+0x20>
     42a:	b007      	add	sp, #28
     42c:	e8bd 8ff0 	ldmia.w	sp!, {r4, r5, r6, r7, r8, r9, sl, fp, pc}

00000430 <_ZN5hwlib6window5clearENS_5colorE>:
     430:	b530      	push	{r4, r5, lr}
     432:	b085      	sub	sp, #20
     434:	9101      	str	r1, [sp, #4]
     436:	b2c9      	uxtb	r1, r1
     438:	b1b9      	cbz	r1, 46a <_ZN5hwlib6window5clearENS_5colorE+0x3a>
     43a:	2901      	cmp	r1, #1
     43c:	d021      	beq.n	482 <_ZN5hwlib6window5clearENS_5colorE+0x52>
     43e:	6803      	ldr	r3, [r0, #0]
     440:	2902      	cmp	r1, #2
     442:	685a      	ldr	r2, [r3, #4]
     444:	bf0c      	ite	eq
     446:	f100 030c 	addeq.w	r3, r0, #12
     44a:	ab01      	addne	r3, sp, #4
     44c:	785d      	ldrb	r5, [r3, #1]
     44e:	789c      	ldrb	r4, [r3, #2]
     450:	78d9      	ldrb	r1, [r3, #3]
     452:	781b      	ldrb	r3, [r3, #0]
     454:	f88d 500d 	strb.w	r5, [sp, #13]
     458:	f88d 300c 	strb.w	r3, [sp, #12]
     45c:	f88d 400e 	strb.w	r4, [sp, #14]
     460:	f88d 100f 	strb.w	r1, [sp, #15]
     464:	9903      	ldr	r1, [sp, #12]
     466:	4790      	blx	r2
     468:	e00b      	b.n	482 <_ZN5hwlib6window5clearENS_5colorE+0x52>
     46a:	f89d 3005 	ldrb.w	r3, [sp, #5]
     46e:	2b00      	cmp	r3, #0
     470:	d1e5      	bne.n	43e <_ZN5hwlib6window5clearENS_5colorE+0xe>
     472:	f89d 3006 	ldrb.w	r3, [sp, #6]
     476:	2b00      	cmp	r3, #0
     478:	d1e1      	bne.n	43e <_ZN5hwlib6window5clearENS_5colorE+0xe>
     47a:	f89d 3007 	ldrb.w	r3, [sp, #7]
     47e:	2b00      	cmp	r3, #0
     480:	d1dd      	bne.n	43e <_ZN5hwlib6window5clearENS_5colorE+0xe>
     482:	b005      	add	sp, #20
     484:	bd30      	pop	{r4, r5, pc}

00000486 <_ZN5hwlib5panicEPKcj>:
     486:	e7fe      	b.n	486 <_ZN5hwlib5panicEPKcj>

00000488 <_ZN5hwlib10background18do_background_workEv>:
     488:	b538      	push	{r3, r4, r5, lr}
     48a:	4d0b      	ldr	r5, [pc, #44]	; (4b8 <_ZN5hwlib10background18do_background_workEv+0x30>)
     48c:	782b      	ldrb	r3, [r5, #0]
     48e:	b98b      	cbnz	r3, 4b4 <_ZN5hwlib10background18do_background_workEv+0x2c>
     490:	4c0a      	ldr	r4, [pc, #40]	; (4bc <_ZN5hwlib10background18do_background_workEv+0x34>)
     492:	6823      	ldr	r3, [r4, #0]
     494:	b913      	cbnz	r3, 49c <_ZN5hwlib10background18do_background_workEv+0x14>
     496:	4b0a      	ldr	r3, [pc, #40]	; (4c0 <_ZN5hwlib10background18do_background_workEv+0x38>)
     498:	681b      	ldr	r3, [r3, #0]
     49a:	6023      	str	r3, [r4, #0]
     49c:	6820      	ldr	r0, [r4, #0]
     49e:	b148      	cbz	r0, 4b4 <_ZN5hwlib10background18do_background_workEv+0x2c>
     4a0:	2301      	movs	r3, #1
     4a2:	702b      	strb	r3, [r5, #0]
     4a4:	6803      	ldr	r3, [r0, #0]
     4a6:	681b      	ldr	r3, [r3, #0]
     4a8:	4798      	blx	r3
     4aa:	2300      	movs	r3, #0
     4ac:	702b      	strb	r3, [r5, #0]
     4ae:	6823      	ldr	r3, [r4, #0]
     4b0:	685b      	ldr	r3, [r3, #4]
     4b2:	6023      	str	r3, [r4, #0]
     4b4:	bd38      	pop	{r3, r4, r5, pc}
     4b6:	bf00      	nop
     4b8:	2001402c 	.word	0x2001402c
     4bc:	20014028 	.word	0x20014028
     4c0:	20014024 	.word	0x20014024

000004c4 <_ZN5hwlib3allENS_2xyE>:
     4c4:	b082      	sub	sp, #8
     4c6:	f10d 0c08 	add.w	ip, sp, #8
     4ca:	e90c 0006 	stmdb	ip, {r1, r2}
     4ce:	9a00      	ldr	r2, [sp, #0]
     4d0:	6002      	str	r2, [r0, #0]
     4d2:	9a01      	ldr	r2, [sp, #4]
     4d4:	6042      	str	r2, [r0, #4]
     4d6:	b002      	add	sp, #8
     4d8:	4770      	bx	lr
	...

000004dc <_ZN5hwlib6directERNS_7pin_outE>:
     4dc:	4a01      	ldr	r2, [pc, #4]	; (4e4 <_ZN5hwlib6directERNS_7pin_outE+0x8>)
     4de:	e9c0 2100 	strd	r2, r1, [r0]
     4e2:	4770      	bx	lr
     4e4:	00000fec 	.word	0x00000fec

000004e8 <_ZN3due9uart_initEv>:
     4e8:	4b13      	ldr	r3, [pc, #76]	; (538 <_ZN3due9uart_initEv+0x50>)
     4ea:	b510      	push	{r4, lr}
     4ec:	781a      	ldrb	r2, [r3, #0]
     4ee:	bb12      	cbnz	r2, 536 <_ZN3due9uart_initEv+0x4e>
     4f0:	2201      	movs	r2, #1
     4f2:	f44f 6100 	mov.w	r1, #2048	; 0x800
     4f6:	f44f 7480 	mov.w	r4, #256	; 0x100
     4fa:	701a      	strb	r2, [r3, #0]
     4fc:	480f      	ldr	r0, [pc, #60]	; (53c <_ZN3due9uart_initEv+0x54>)
     4fe:	4b10      	ldr	r3, [pc, #64]	; (540 <_ZN3due9uart_initEv+0x58>)
     500:	6101      	str	r1, [r0, #16]
     502:	605c      	str	r4, [r3, #4]
     504:	6f1a      	ldr	r2, [r3, #112]	; 0x70
     506:	f422 7280 	bic.w	r2, r2, #256	; 0x100
     50a:	671a      	str	r2, [r3, #112]	; 0x70
     50c:	f44f 7200 	mov.w	r2, #512	; 0x200
     510:	605a      	str	r2, [r3, #4]
     512:	6f1a      	ldr	r2, [r3, #112]	; 0x70
     514:	f422 7200 	bic.w	r2, r2, #512	; 0x200
     518:	671a      	str	r2, [r3, #112]	; 0x70
     51a:	22ac      	movs	r2, #172	; 0xac
     51c:	4b09      	ldr	r3, [pc, #36]	; (544 <_ZN3due9uart_initEv+0x5c>)
     51e:	6104      	str	r4, [r0, #16]
     520:	681b      	ldr	r3, [r3, #0]
     522:	601a      	str	r2, [r3, #0]
     524:	f640 0288 	movw	r2, #2184	; 0x888
     528:	621a      	str	r2, [r3, #32]
     52a:	f04f 32ff 	mov.w	r2, #4294967295	; 0xffffffff
     52e:	6059      	str	r1, [r3, #4]
     530:	60da      	str	r2, [r3, #12]
     532:	2250      	movs	r2, #80	; 0x50
     534:	601a      	str	r2, [r3, #0]
     536:	bd10      	pop	{r4, pc}
     538:	2001402d 	.word	0x2001402d
     53c:	400e0600 	.word	0x400e0600
     540:	400e0e00 	.word	0x400e0e00
     544:	20014038 	.word	0x20014038

00000548 <_ZN3due9uart_putcEc>:
     548:	b538      	push	{r3, r4, r5, lr}
     54a:	4604      	mov	r4, r0
     54c:	f7ff ffcc 	bl	4e8 <_ZN3due9uart_initEv>
     550:	4d04      	ldr	r5, [pc, #16]	; (564 <_ZN3due9uart_putcEc+0x1c>)
     552:	682b      	ldr	r3, [r5, #0]
     554:	695a      	ldr	r2, [r3, #20]
     556:	0792      	lsls	r2, r2, #30
     558:	d402      	bmi.n	560 <_ZN3due9uart_putcEc+0x18>
     55a:	f7ff ff95 	bl	488 <_ZN5hwlib10background18do_background_workEv>
     55e:	e7f8      	b.n	552 <_ZN3due9uart_putcEc+0xa>
     560:	61dc      	str	r4, [r3, #28]
     562:	bd38      	pop	{r3, r4, r5, pc}
     564:	20014038 	.word	0x20014038

00000568 <_ZN5hwlib20cout_using_uart_putc4putcEc>:
     568:	b508      	push	{r3, lr}
     56a:	4608      	mov	r0, r1
     56c:	f7ff fe26 	bl	1bc <_ZN5hwlib9uart_putcEc>
     570:	bd08      	pop	{r3, pc}

00000572 <_ZN5hwlib6now_usEv>:
     572:	b538      	push	{r3, r4, r5, lr}
     574:	f7ff fde2 	bl	13c <_ZN3due9now_ticksEv>
     578:	4604      	mov	r4, r0
     57a:	460d      	mov	r5, r1
     57c:	f7ff fdda 	bl	134 <_ZN3due12ticks_per_usEv>
     580:	4602      	mov	r2, r0
     582:	460b      	mov	r3, r1
     584:	4620      	mov	r0, r4
     586:	4629      	mov	r1, r5
     588:	f000 fb02 	bl	b90 <__aeabi_uldivmod>
     58c:	bd38      	pop	{r3, r4, r5, pc}

0000058e <_ZN5hwlib12wait_us_busyEi>:
     58e:	b570      	push	{r4, r5, r6, lr}
     590:	4606      	mov	r6, r0
     592:	f7ff ffee 	bl	572 <_ZN5hwlib6now_usEv>
     596:	1984      	adds	r4, r0, r6
     598:	eb41 75e6 	adc.w	r5, r1, r6, asr #31
     59c:	f7ff ffe9 	bl	572 <_ZN5hwlib6now_usEv>
     5a0:	42a9      	cmp	r1, r5
     5a2:	bf08      	it	eq
     5a4:	42a0      	cmpeq	r0, r4
     5a6:	d3f9      	bcc.n	59c <_ZN5hwlib12wait_us_busyEi+0xe>
     5a8:	bd70      	pop	{r4, r5, r6, pc}

000005aa <_ZN3due7pin_out5writeEb>:
     5aa:	e9d0 3201 	ldrd	r3, r2, [r0, #4]
     5ae:	b109      	cbz	r1, 5b4 <_ZN3due7pin_out5writeEb+0xa>
     5b0:	631a      	str	r2, [r3, #48]	; 0x30
     5b2:	4770      	bx	lr
     5b4:	635a      	str	r2, [r3, #52]	; 0x34
     5b6:	4770      	bx	lr

000005b8 <_ZN3due7pin_out5flushEv>:
     5b8:	4770      	bx	lr
	...

000005bc <_ZN36my_spi_bus_bit_banged_sclk_mosi_miso14write_and_readEjPKhPh>:
     5bc:	b570      	push	{r4, r5, r6, lr}
     5be:	f04f 6580 	mov.w	r5, #67108864	; 0x4000000
     5c2:	f04f 5680 	mov.w	r6, #268435456	; 0x10000000
     5c6:	4b0a      	ldr	r3, [pc, #40]	; (5f0 <_ZN36my_spi_bus_bit_banged_sclk_mosi_miso14write_and_readEjPKhPh+0x34>)
     5c8:	4411      	add	r1, r2
     5ca:	428a      	cmp	r2, r1
     5cc:	d00e      	beq.n	5ec <_ZN36my_spi_bus_bit_banged_sclk_mosi_miso14write_and_readEjPKhPh+0x30>
     5ce:	2008      	movs	r0, #8
     5d0:	f812 4b01 	ldrb.w	r4, [r2], #1
     5d4:	f014 0f80 	tst.w	r4, #128	; 0x80
     5d8:	bf14      	ite	ne
     5da:	631d      	strne	r5, [r3, #48]	; 0x30
     5dc:	635d      	streq	r5, [r3, #52]	; 0x34
     5de:	3801      	subs	r0, #1
     5e0:	635e      	str	r6, [r3, #52]	; 0x34
     5e2:	ea4f 0444 	mov.w	r4, r4, lsl #1
     5e6:	631e      	str	r6, [r3, #48]	; 0x30
     5e8:	d1f4      	bne.n	5d4 <_ZN36my_spi_bus_bit_banged_sclk_mosi_miso14write_and_readEjPKhPh+0x18>
     5ea:	e7ee      	b.n	5ca <_ZN36my_spi_bus_bit_banged_sclk_mosi_miso14write_and_readEjPKhPh+0xe>
     5ec:	bd70      	pop	{r4, r5, r6, pc}
     5ee:	bf00      	nop
     5f0:	400e1200 	.word	0x400e1200

000005f4 <_ZN23my_st7789_spi_dc_cs_rst20write_implementationEN5hwlib2xyENS0_5colorE>:
     5f4:	b084      	sub	sp, #16
     5f6:	ab04      	add	r3, sp, #16
     5f8:	e903 0006 	stmdb	r3, {r1, r2}
     5fc:	b004      	add	sp, #16
     5fe:	4770      	bx	lr

00000600 <_ZN5hwlib7spi_bus15spi_transactionC1ERS0_RNS_7pin_outE>:
     600:	b510      	push	{r4, lr}
     602:	4604      	mov	r4, r0
     604:	f840 1b04 	str.w	r1, [r0], #4
     608:	4611      	mov	r1, r2
     60a:	f7ff ff67 	bl	4dc <_ZN5hwlib6directERNS_7pin_outE>
     60e:	68a0      	ldr	r0, [r4, #8]
     610:	2100      	movs	r1, #0
     612:	6803      	ldr	r3, [r0, #0]
     614:	681b      	ldr	r3, [r3, #0]
     616:	4798      	blx	r3
     618:	68a0      	ldr	r0, [r4, #8]
     61a:	6803      	ldr	r3, [r0, #0]
     61c:	685b      	ldr	r3, [r3, #4]
     61e:	4798      	blx	r3
     620:	4620      	mov	r0, r4
     622:	bd10      	pop	{r4, pc}

00000624 <_ZN5hwlib7spi_bus15spi_transactionD1Ev>:
     624:	b510      	push	{r4, lr}
     626:	4604      	mov	r4, r0
     628:	6880      	ldr	r0, [r0, #8]
     62a:	2101      	movs	r1, #1
     62c:	6803      	ldr	r3, [r0, #0]
     62e:	681b      	ldr	r3, [r3, #0]
     630:	4798      	blx	r3
     632:	68a0      	ldr	r0, [r4, #8]
     634:	6803      	ldr	r3, [r0, #0]
     636:	685b      	ldr	r3, [r3, #4]
     638:	4798      	blx	r3
     63a:	4620      	mov	r0, r4
     63c:	bd10      	pop	{r4, pc}

0000063e <_ZN23my_st7789_spi_dc_cs_rst5flushEv>:
     63e:	e92d 41ff 	stmdb	sp!, {r0, r1, r2, r3, r4, r5, r6, r7, r8, lr}
     642:	f641 4538 	movw	r5, #7224	; 0x1c38
     646:	4604      	mov	r4, r0
     648:	5940      	ldr	r0, [r0, r5]
     64a:	2100      	movs	r1, #0
     64c:	6803      	ldr	r3, [r0, #0]
     64e:	681b      	ldr	r3, [r3, #0]
     650:	4798      	blx	r3
     652:	5960      	ldr	r0, [r4, r5]
     654:	6803      	ldr	r3, [r0, #0]
     656:	685b      	ldr	r3, [r3, #4]
     658:	4798      	blx	r3
     65a:	f641 433c 	movw	r3, #7228	; 0x1c3c
     65e:	58e2      	ldr	r2, [r4, r3]
     660:	f641 4334 	movw	r3, #7220	; 0x1c34
     664:	a801      	add	r0, sp, #4
     666:	58e1      	ldr	r1, [r4, r3]
     668:	f7ff ffca 	bl	600 <_ZN5hwlib7spi_bus15spi_transactionC1ERS0_RNS_7pin_outE>
     66c:	232c      	movs	r3, #44	; 0x2c
     66e:	9801      	ldr	r0, [sp, #4]
     670:	f88d 3000 	strb.w	r3, [sp]
     674:	6803      	ldr	r3, [r0, #0]
     676:	466a      	mov	r2, sp
     678:	681e      	ldr	r6, [r3, #0]
     67a:	2101      	movs	r1, #1
     67c:	2300      	movs	r3, #0
     67e:	47b0      	blx	r6
     680:	5960      	ldr	r0, [r4, r5]
     682:	2101      	movs	r1, #1
     684:	6803      	ldr	r3, [r0, #0]
     686:	681b      	ldr	r3, [r3, #0]
     688:	4798      	blx	r3
     68a:	5960      	ldr	r0, [r4, r5]
     68c:	2500      	movs	r5, #0
     68e:	6803      	ldr	r3, [r0, #0]
     690:	685b      	ldr	r3, [r3, #4]
     692:	4798      	blx	r3
     694:	eb04 07e5 	add.w	r7, r4, r5, asr #3
     698:	7d3b      	ldrb	r3, [r7, #20]
     69a:	f005 0607 	and.w	r6, r5, #7
     69e:	4133      	asrs	r3, r6
     6a0:	9801      	ldr	r0, [sp, #4]
     6a2:	f003 0301 	and.w	r3, r3, #1
     6a6:	f88d 3003 	strb.w	r3, [sp, #3]
     6aa:	6803      	ldr	r3, [r0, #0]
     6ac:	f10d 0203 	add.w	r2, sp, #3
     6b0:	f8d3 8000 	ldr.w	r8, [r3]
     6b4:	2101      	movs	r1, #1
     6b6:	2300      	movs	r3, #0
     6b8:	47c0      	blx	r8
     6ba:	7d3b      	ldrb	r3, [r7, #20]
     6bc:	9801      	ldr	r0, [sp, #4]
     6be:	4133      	asrs	r3, r6
     6c0:	f003 0301 	and.w	r3, r3, #1
     6c4:	f88d 3002 	strb.w	r3, [sp, #2]
     6c8:	6803      	ldr	r3, [r0, #0]
     6ca:	f10d 0202 	add.w	r2, sp, #2
     6ce:	f8d3 8000 	ldr.w	r8, [r3]
     6d2:	2101      	movs	r1, #1
     6d4:	2300      	movs	r3, #0
     6d6:	47c0      	blx	r8
     6d8:	7d3b      	ldrb	r3, [r7, #20]
     6da:	9801      	ldr	r0, [sp, #4]
     6dc:	4133      	asrs	r3, r6
     6de:	f003 0301 	and.w	r3, r3, #1
     6e2:	f88d 3001 	strb.w	r3, [sp, #1]
     6e6:	6803      	ldr	r3, [r0, #0]
     6e8:	f10d 0201 	add.w	r2, sp, #1
     6ec:	681e      	ldr	r6, [r3, #0]
     6ee:	2101      	movs	r1, #1
     6f0:	2300      	movs	r3, #0
     6f2:	3501      	adds	r5, #1
     6f4:	47b0      	blx	r6
     6f6:	f5b5 2fe1 	cmp.w	r5, #460800	; 0x70800
     6fa:	d1cb      	bne.n	694 <_ZN23my_st7789_spi_dc_cs_rst5flushEv+0x56>
     6fc:	a801      	add	r0, sp, #4
     6fe:	f7ff ff91 	bl	624 <_ZN5hwlib7spi_bus15spi_transactionD1Ev>
     702:	b004      	add	sp, #16
     704:	e8bd 81f0 	ldmia.w	sp!, {r4, r5, r6, r7, r8, pc}

00000708 <_ZN3due7pin_outC1ENS_4pinsE>:
     708:	b570      	push	{r4, r5, r6, lr}
     70a:	4604      	mov	r4, r0
     70c:	4608      	mov	r0, r1
     70e:	460d      	mov	r5, r1
     710:	f7ff fcd6 	bl	c0 <_ZN3due8pin_infoENS_4pinsE>
     714:	7806      	ldrb	r6, [r0, #0]
     716:	4628      	mov	r0, r5
     718:	f7ff fcd2 	bl	c0 <_ZN3due8pin_infoENS_4pinsE>
     71c:	4b06      	ldr	r3, [pc, #24]	; (738 <_ZN3due7pin_outC1ENS_4pinsE+0x30>)
     71e:	7845      	ldrb	r5, [r0, #1]
     720:	6023      	str	r3, [r4, #0]
     722:	4630      	mov	r0, r6
     724:	f7ff fcdc 	bl	e0 <_ZN3due14port_registersEm>
     728:	2301      	movs	r3, #1
     72a:	40ab      	lsls	r3, r5
     72c:	6060      	str	r0, [r4, #4]
     72e:	60a3      	str	r3, [r4, #8]
     730:	6103      	str	r3, [r0, #16]
     732:	4620      	mov	r0, r4
     734:	bd70      	pop	{r4, r5, r6, pc}
     736:	bf00      	nop
     738:	0000100c 	.word	0x0000100c

0000073c <_ZN23my_st7789_spi_dc_cs_rst7commandEN9my_st77898commandsE>:
     73c:	b57f      	push	{r0, r1, r2, r3, r4, r5, r6, lr}
     73e:	f641 4538 	movw	r5, #7224	; 0x1c38
     742:	4604      	mov	r4, r0
     744:	5940      	ldr	r0, [r0, r5]
     746:	460e      	mov	r6, r1
     748:	6803      	ldr	r3, [r0, #0]
     74a:	2100      	movs	r1, #0
     74c:	681b      	ldr	r3, [r3, #0]
     74e:	4798      	blx	r3
     750:	5960      	ldr	r0, [r4, r5]
     752:	6803      	ldr	r3, [r0, #0]
     754:	685b      	ldr	r3, [r3, #4]
     756:	4798      	blx	r3
     758:	f641 433c 	movw	r3, #7228	; 0x1c3c
     75c:	58e2      	ldr	r2, [r4, r3]
     75e:	f641 4334 	movw	r3, #7220	; 0x1c34
     762:	a801      	add	r0, sp, #4
     764:	58e1      	ldr	r1, [r4, r3]
     766:	f7ff ff4b 	bl	600 <_ZN5hwlib7spi_bus15spi_transactionC1ERS0_RNS_7pin_outE>
     76a:	9801      	ldr	r0, [sp, #4]
     76c:	f88d 6003 	strb.w	r6, [sp, #3]
     770:	6803      	ldr	r3, [r0, #0]
     772:	f10d 0203 	add.w	r2, sp, #3
     776:	681e      	ldr	r6, [r3, #0]
     778:	2101      	movs	r1, #1
     77a:	2300      	movs	r3, #0
     77c:	47b0      	blx	r6
     77e:	5960      	ldr	r0, [r4, r5]
     780:	2101      	movs	r1, #1
     782:	6803      	ldr	r3, [r0, #0]
     784:	681b      	ldr	r3, [r3, #0]
     786:	4798      	blx	r3
     788:	5960      	ldr	r0, [r4, r5]
     78a:	6803      	ldr	r3, [r0, #0]
     78c:	685b      	ldr	r3, [r3, #4]
     78e:	4798      	blx	r3
     790:	a801      	add	r0, sp, #4
     792:	f7ff ff47 	bl	624 <_ZN5hwlib7spi_bus15spi_transactionD1Ev>
     796:	b004      	add	sp, #16
     798:	bd70      	pop	{r4, r5, r6, pc}

0000079a <_ZN23my_st7789_spi_dc_cs_rst7commandEN9my_st77898commandsEh>:
     79a:	b5f0      	push	{r4, r5, r6, r7, lr}
     79c:	f641 4538 	movw	r5, #7224	; 0x1c38
     7a0:	4604      	mov	r4, r0
     7a2:	5940      	ldr	r0, [r0, r5]
     7a4:	b085      	sub	sp, #20
     7a6:	6803      	ldr	r3, [r0, #0]
     7a8:	460f      	mov	r7, r1
     7aa:	681b      	ldr	r3, [r3, #0]
     7ac:	2100      	movs	r1, #0
     7ae:	4616      	mov	r6, r2
     7b0:	4798      	blx	r3
     7b2:	5960      	ldr	r0, [r4, r5]
     7b4:	6803      	ldr	r3, [r0, #0]
     7b6:	685b      	ldr	r3, [r3, #4]
     7b8:	4798      	blx	r3
     7ba:	f641 433c 	movw	r3, #7228	; 0x1c3c
     7be:	58e2      	ldr	r2, [r4, r3]
     7c0:	f641 4334 	movw	r3, #7220	; 0x1c34
     7c4:	a801      	add	r0, sp, #4
     7c6:	58e1      	ldr	r1, [r4, r3]
     7c8:	f7ff ff1a 	bl	600 <_ZN5hwlib7spi_bus15spi_transactionC1ERS0_RNS_7pin_outE>
     7cc:	9801      	ldr	r0, [sp, #4]
     7ce:	f88d 7003 	strb.w	r7, [sp, #3]
     7d2:	6803      	ldr	r3, [r0, #0]
     7d4:	f10d 0203 	add.w	r2, sp, #3
     7d8:	681f      	ldr	r7, [r3, #0]
     7da:	2101      	movs	r1, #1
     7dc:	2300      	movs	r3, #0
     7de:	47b8      	blx	r7
     7e0:	5960      	ldr	r0, [r4, r5]
     7e2:	2101      	movs	r1, #1
     7e4:	6803      	ldr	r3, [r0, #0]
     7e6:	681b      	ldr	r3, [r3, #0]
     7e8:	4798      	blx	r3
     7ea:	5960      	ldr	r0, [r4, r5]
     7ec:	6803      	ldr	r3, [r0, #0]
     7ee:	685b      	ldr	r3, [r3, #4]
     7f0:	4798      	blx	r3
     7f2:	9801      	ldr	r0, [sp, #4]
     7f4:	f88d 6002 	strb.w	r6, [sp, #2]
     7f8:	6803      	ldr	r3, [r0, #0]
     7fa:	f10d 0202 	add.w	r2, sp, #2
     7fe:	681c      	ldr	r4, [r3, #0]
     800:	2101      	movs	r1, #1
     802:	2300      	movs	r3, #0
     804:	47a0      	blx	r4
     806:	a801      	add	r0, sp, #4
     808:	f7ff ff0c 	bl	624 <_ZN5hwlib7spi_bus15spi_transactionD1Ev>
     80c:	b005      	add	sp, #20
     80e:	bdf0      	pop	{r4, r5, r6, r7, pc}

00000810 <_ZN23my_st7789_spi_dc_cs_rst7commandEN9my_st77898commandsEhhhh>:
     810:	e92d 41f0 	stmdb	sp!, {r4, r5, r6, r7, r8, lr}
     814:	f641 4538 	movw	r5, #7224	; 0x1c38
     818:	4604      	mov	r4, r0
     81a:	5940      	ldr	r0, [r0, r5]
     81c:	461e      	mov	r6, r3
     81e:	6803      	ldr	r3, [r0, #0]
     820:	b086      	sub	sp, #24
     822:	4688      	mov	r8, r1
     824:	681b      	ldr	r3, [r3, #0]
     826:	2100      	movs	r1, #0
     828:	4617      	mov	r7, r2
     82a:	4798      	blx	r3
     82c:	5960      	ldr	r0, [r4, r5]
     82e:	6803      	ldr	r3, [r0, #0]
     830:	685b      	ldr	r3, [r3, #4]
     832:	4798      	blx	r3
     834:	f641 433c 	movw	r3, #7228	; 0x1c3c
     838:	58e2      	ldr	r2, [r4, r3]
     83a:	f641 4334 	movw	r3, #7220	; 0x1c34
     83e:	a803      	add	r0, sp, #12
     840:	58e1      	ldr	r1, [r4, r3]
     842:	f7ff fedd 	bl	600 <_ZN5hwlib7spi_bus15spi_transactionC1ERS0_RNS_7pin_outE>
     846:	9803      	ldr	r0, [sp, #12]
     848:	f88d 800b 	strb.w	r8, [sp, #11]
     84c:	6803      	ldr	r3, [r0, #0]
     84e:	f10d 020b 	add.w	r2, sp, #11
     852:	f8d3 8000 	ldr.w	r8, [r3]
     856:	2101      	movs	r1, #1
     858:	2300      	movs	r3, #0
     85a:	47c0      	blx	r8
     85c:	5960      	ldr	r0, [r4, r5]
     85e:	2101      	movs	r1, #1
     860:	6803      	ldr	r3, [r0, #0]
     862:	681b      	ldr	r3, [r3, #0]
     864:	4798      	blx	r3
     866:	5960      	ldr	r0, [r4, r5]
     868:	6803      	ldr	r3, [r0, #0]
     86a:	685b      	ldr	r3, [r3, #4]
     86c:	4798      	blx	r3
     86e:	9803      	ldr	r0, [sp, #12]
     870:	f88d 700a 	strb.w	r7, [sp, #10]
     874:	6803      	ldr	r3, [r0, #0]
     876:	f10d 020a 	add.w	r2, sp, #10
     87a:	681c      	ldr	r4, [r3, #0]
     87c:	2101      	movs	r1, #1
     87e:	2300      	movs	r3, #0
     880:	47a0      	blx	r4
     882:	9803      	ldr	r0, [sp, #12]
     884:	f88d 6009 	strb.w	r6, [sp, #9]
     888:	6803      	ldr	r3, [r0, #0]
     88a:	f10d 0209 	add.w	r2, sp, #9
     88e:	681c      	ldr	r4, [r3, #0]
     890:	2101      	movs	r1, #1
     892:	2300      	movs	r3, #0
     894:	47a0      	blx	r4
     896:	f89d 3030 	ldrb.w	r3, [sp, #48]	; 0x30
     89a:	9803      	ldr	r0, [sp, #12]
     89c:	f88d 3008 	strb.w	r3, [sp, #8]
     8a0:	6803      	ldr	r3, [r0, #0]
     8a2:	aa02      	add	r2, sp, #8
     8a4:	681c      	ldr	r4, [r3, #0]
     8a6:	2101      	movs	r1, #1
     8a8:	2300      	movs	r3, #0
     8aa:	47a0      	blx	r4
     8ac:	f89d 3034 	ldrb.w	r3, [sp, #52]	; 0x34
     8b0:	9803      	ldr	r0, [sp, #12]
     8b2:	f88d 3007 	strb.w	r3, [sp, #7]
     8b6:	6803      	ldr	r3, [r0, #0]
     8b8:	f10d 0207 	add.w	r2, sp, #7
     8bc:	681c      	ldr	r4, [r3, #0]
     8be:	2101      	movs	r1, #1
     8c0:	2300      	movs	r3, #0
     8c2:	47a0      	blx	r4
     8c4:	a803      	add	r0, sp, #12
     8c6:	f7ff fead 	bl	624 <_ZN5hwlib7spi_bus15spi_transactionD1Ev>
     8ca:	b006      	add	sp, #24
     8cc:	e8bd 81f0 	ldmia.w	sp!, {r4, r5, r6, r7, r8, pc}

000008d0 <_ZN23my_st7789_spi_dc_cs_rst6clearsEb>:
     8d0:	e92d 4ff7 	stmdb	sp!, {r0, r1, r2, r4, r5, r6, r7, r8, r9, sl, fp, lr}
     8d4:	1d03      	adds	r3, r0, #4
     8d6:	4604      	mov	r4, r0
     8d8:	460e      	mov	r6, r1
     8da:	e893 0006 	ldmia.w	r3, {r1, r2}
     8de:	4668      	mov	r0, sp
     8e0:	f7ff fdf0 	bl	4c4 <_ZN5hwlib3allENS_2xyE>
     8e4:	e9dd 5700 	ldrd	r5, r7, [sp]
     8e8:	2000      	movs	r0, #0
     8ea:	f04f 0cf0 	mov.w	ip, #240	; 0xf0
     8ee:	f04f 0e08 	mov.w	lr, #8
     8f2:	f04f 0801 	mov.w	r8, #1
     8f6:	2200      	movs	r2, #0
     8f8:	fb0c f900 	mul.w	r9, ip, r0
     8fc:	b90a      	cbnz	r2, 902 <_ZN23my_st7789_spi_dc_cs_rst6clearsEb+0x32>
     8fe:	4287      	cmp	r7, r0
     900:	d01e      	beq.n	940 <_ZN23my_st7789_spi_dc_cs_rst6clearsEb+0x70>
     902:	eb09 0302 	add.w	r3, r9, r2
     906:	fb93 f1fe 	sdiv	r1, r3, lr
     90a:	f1d3 0b00 	rsbs	fp, r3, #0
     90e:	f00b 0b07 	and.w	fp, fp, #7
     912:	f003 0307 	and.w	r3, r3, #7
     916:	bf58      	it	pl
     918:	f1cb 0300 	rsbpl	r3, fp, #0
     91c:	4421      	add	r1, r4
     91e:	fa08 f303 	lsl.w	r3, r8, r3
     922:	f991 a014 	ldrsb.w	sl, [r1, #20]
     926:	b25b      	sxtb	r3, r3
     928:	b13e      	cbz	r6, 93a <_ZN23my_st7789_spi_dc_cs_rst6clearsEb+0x6a>
     92a:	ea43 030a 	orr.w	r3, r3, sl
     92e:	3201      	adds	r2, #1
     930:	4295      	cmp	r5, r2
     932:	750b      	strb	r3, [r1, #20]
     934:	d1e2      	bne.n	8fc <_ZN23my_st7789_spi_dc_cs_rst6clearsEb+0x2c>
     936:	3001      	adds	r0, #1
     938:	e7dd      	b.n	8f6 <_ZN23my_st7789_spi_dc_cs_rst6clearsEb+0x26>
     93a:	ea2a 0303 	bic.w	r3, sl, r3
     93e:	e7f6      	b.n	92e <_ZN23my_st7789_spi_dc_cs_rst6clearsEb+0x5e>
     940:	b003      	add	sp, #12
     942:	e8bd 8ff0 	ldmia.w	sp!, {r4, r5, r6, r7, r8, r9, sl, fp, pc}
	...

00000948 <main>:
     948:	e92d 47f0 	stmdb	sp!, {r4, r5, r6, r7, r8, r9, sl, lr}
     94c:	4c73      	ldr	r4, [pc, #460]	; (b1c <main+0x1d4>)
     94e:	f5ad 5de4 	sub.w	sp, sp, #7296	; 0x1c80
     952:	b086      	sub	sp, #24
     954:	f44f 60fa 	mov.w	r0, #2000	; 0x7d0
     958:	f7ff fd06 	bl	368 <_ZN5hwlib7wait_msEi>
     95c:	7ba3      	ldrb	r3, [r4, #14]
     95e:	b933      	cbnz	r3, 96e <main+0x26>
     960:	4d6f      	ldr	r5, [pc, #444]	; (b20 <main+0x1d8>)
     962:	f815 0f01 	ldrb.w	r0, [r5, #1]!
     966:	b188      	cbz	r0, 98c <main+0x44>
     968:	f7ff fc28 	bl	1bc <_ZN5hwlib9uart_putcEc>
     96c:	e7f9      	b.n	962 <main+0x1a>
     96e:	2300      	movs	r3, #0
     970:	6865      	ldr	r5, [r4, #4]
     972:	4a6c      	ldr	r2, [pc, #432]	; (b24 <main+0x1dc>)
     974:	5c99      	ldrb	r1, [r3, r2]
     976:	b109      	cbz	r1, 97c <main+0x34>
     978:	3301      	adds	r3, #1
     97a:	e7fb      	b.n	974 <main+0x2c>
     97c:	1aed      	subs	r5, r5, r3
     97e:	2d00      	cmp	r5, #0
     980:	ddee      	ble.n	960 <main+0x18>
     982:	7b20      	ldrb	r0, [r4, #12]
     984:	f7ff fc1a 	bl	1bc <_ZN5hwlib9uart_putcEc>
     988:	3d01      	subs	r5, #1
     98a:	e7f8      	b.n	97e <main+0x36>
     98c:	7ba3      	ldrb	r3, [r4, #14]
     98e:	b96b      	cbnz	r3, 9ac <main+0x64>
     990:	6865      	ldr	r5, [r4, #4]
     992:	4a64      	ldr	r2, [pc, #400]	; (b24 <main+0x1dc>)
     994:	5c99      	ldrb	r1, [r3, r2]
     996:	b109      	cbz	r1, 99c <main+0x54>
     998:	3301      	adds	r3, #1
     99a:	e7fb      	b.n	994 <main+0x4c>
     99c:	1aed      	subs	r5, r5, r3
     99e:	2d00      	cmp	r5, #0
     9a0:	dd04      	ble.n	9ac <main+0x64>
     9a2:	7b20      	ldrb	r0, [r4, #12]
     9a4:	f7ff fc0a 	bl	1bc <_ZN5hwlib9uart_putcEc>
     9a8:	3d01      	subs	r5, #1
     9aa:	e7f8      	b.n	99e <main+0x56>
     9ac:	2500      	movs	r5, #0
     9ae:	6823      	ldr	r3, [r4, #0]
     9b0:	6065      	str	r5, [r4, #4]
     9b2:	685b      	ldr	r3, [r3, #4]
     9b4:	4859      	ldr	r0, [pc, #356]	; (b1c <main+0x1d4>)
     9b6:	4798      	blx	r3
     9b8:	f04f 5680 	mov.w	r6, #268435456	; 0x10000000
     9bc:	f44f 4200 	mov.w	r2, #32768	; 0x8000
     9c0:	4c59      	ldr	r4, [pc, #356]	; (b28 <main+0x1e0>)
     9c2:	4b5a      	ldr	r3, [pc, #360]	; (b2c <main+0x1e4>)
     9c4:	f8df 817c 	ldr.w	r8, [pc, #380]	; b44 <main+0x1fc>
     9c8:	605a      	str	r2, [r3, #4]
     9ca:	6126      	str	r6, [r4, #16]
     9cc:	605a      	str	r2, [r3, #4]
     9ce:	f04f 6380 	mov.w	r3, #67108864	; 0x4000000
     9d2:	6123      	str	r3, [r4, #16]
     9d4:	4b56      	ldr	r3, [pc, #344]	; (b30 <main+0x1e8>)
     9d6:	af0c      	add	r7, sp, #48	; 0x30
     9d8:	930c      	str	r3, [sp, #48]	; 0x30
     9da:	4b56      	ldr	r3, [pc, #344]	; (b34 <main+0x1ec>)
     9dc:	221c      	movs	r2, #28
     9de:	607b      	str	r3, [r7, #4]
     9e0:	e9c7 8302 	strd	r8, r3, [r7, #8]
     9e4:	4b54      	ldr	r3, [pc, #336]	; (b38 <main+0x1f0>)
     9e6:	4640      	mov	r0, r8
     9e8:	617b      	str	r3, [r7, #20]
     9ea:	4b54      	ldr	r3, [pc, #336]	; (b3c <main+0x1f4>)
     9ec:	f10d 0a0c 	add.w	sl, sp, #12
     9f0:	61bb      	str	r3, [r7, #24]
     9f2:	231a      	movs	r3, #26
     9f4:	e9c7 2307 	strd	r2, r3, [r7, #28]
     9f8:	f8d8 3000 	ldr.w	r3, [r8]
     9fc:	f8c7 8010 	str.w	r8, [r7, #16]
     a00:	685b      	ldr	r3, [r3, #4]
     a02:	4798      	blx	r3
     a04:	6326      	str	r6, [r4, #48]	; 0x30
     a06:	2106      	movs	r1, #6
     a08:	4650      	mov	r0, sl
     a0a:	f7ff fe7d 	bl	708 <_ZN3due7pin_outC1ENS_4pinsE>
     a0e:	ae09      	add	r6, sp, #36	; 0x24
     a10:	2107      	movs	r1, #7
     a12:	a806      	add	r0, sp, #24
     a14:	f7ff fe78 	bl	708 <_ZN3due7pin_outC1ENS_4pinsE>
     a18:	f04f 09f0 	mov.w	r9, #240	; 0xf0
     a1c:	2105      	movs	r1, #5
     a1e:	4630      	mov	r0, r6
     a20:	f7ff fe72 	bl	708 <_ZN3due7pin_outC1ENS_4pinsE>
     a24:	e9dd 3207 	ldrd	r3, r2, [sp, #28]
     a28:	631a      	str	r2, [r3, #48]	; 0x30
     a2a:	23ff      	movs	r3, #255	; 0xff
     a2c:	ac16      	add	r4, sp, #88	; 0x58
     a2e:	f844 9904 	str.w	r9, [r4], #-4
     a32:	7463      	strb	r3, [r4, #17]
     a34:	74a3      	strb	r3, [r4, #18]
     a36:	74e3      	strb	r3, [r4, #19]
     a38:	4b41      	ldr	r3, [pc, #260]	; (b40 <main+0x1f8>)
     a3a:	20c8      	movs	r0, #200	; 0xc8
     a3c:	9315      	str	r3, [sp, #84]	; 0x54
     a3e:	f641 4334 	movw	r3, #7220	; 0x1c34
     a42:	50e7      	str	r7, [r4, r3]
     a44:	f641 4338 	movw	r3, #7224	; 0x1c38
     a48:	f844 a003 	str.w	sl, [r4, r3]
     a4c:	f641 433c 	movw	r3, #7228	; 0x1c3c
     a50:	f844 8003 	str.w	r8, [r4, r3]
     a54:	f504 53e2 	add.w	r3, r4, #7232	; 0x1c40
     a58:	601e      	str	r6, [r3, #0]
     a5a:	f8c4 9008 	str.w	r9, [r4, #8]
     a5e:	e9d6 3201 	ldrd	r3, r2, [r6, #4]
     a62:	7325      	strb	r5, [r4, #12]
     a64:	635a      	str	r2, [r3, #52]	; 0x34
     a66:	7365      	strb	r5, [r4, #13]
     a68:	73a5      	strb	r5, [r4, #14]
     a6a:	73e5      	strb	r5, [r4, #15]
     a6c:	7425      	strb	r5, [r4, #16]
     a6e:	f7ff fc7b 	bl	368 <_ZN5hwlib7wait_msEi>
     a72:	e9d6 3201 	ldrd	r3, r2, [r6, #4]
     a76:	20c8      	movs	r0, #200	; 0xc8
     a78:	631a      	str	r2, [r3, #48]	; 0x30
     a7a:	f7ff fc75 	bl	368 <_ZN5hwlib7wait_msEi>
     a7e:	2101      	movs	r1, #1
     a80:	4620      	mov	r0, r4
     a82:	f7ff fe5b 	bl	73c <_ZN23my_st7789_spi_dc_cs_rst7commandEN9my_st77898commandsE>
     a86:	2096      	movs	r0, #150	; 0x96
     a88:	f7ff fc6e 	bl	368 <_ZN5hwlib7wait_msEi>
     a8c:	2111      	movs	r1, #17
     a8e:	4620      	mov	r0, r4
     a90:	f7ff fe54 	bl	73c <_ZN23my_st7789_spi_dc_cs_rst7commandEN9my_st77898commandsE>
     a94:	200a      	movs	r0, #10
     a96:	f7ff fc67 	bl	368 <_ZN5hwlib7wait_msEi>
     a9a:	2266      	movs	r2, #102	; 0x66
     a9c:	213a      	movs	r1, #58	; 0x3a
     a9e:	4620      	mov	r0, r4
     aa0:	f7ff fe7b 	bl	79a <_ZN23my_st7789_spi_dc_cs_rst7commandEN9my_st77898commandsEh>
     aa4:	200a      	movs	r0, #10
     aa6:	f7ff fc5f 	bl	368 <_ZN5hwlib7wait_msEi>
     aaa:	2210      	movs	r2, #16
     aac:	2136      	movs	r1, #54	; 0x36
     aae:	4620      	mov	r0, r4
     ab0:	f7ff fe73 	bl	79a <_ZN23my_st7789_spi_dc_cs_rst7commandEN9my_st77898commandsEh>
     ab4:	462b      	mov	r3, r5
     ab6:	462a      	mov	r2, r5
     ab8:	212a      	movs	r1, #42	; 0x2a
     aba:	4620      	mov	r0, r4
     abc:	e9cd 5900 	strd	r5, r9, [sp]
     ac0:	f7ff fea6 	bl	810 <_ZN23my_st7789_spi_dc_cs_rst7commandEN9my_st77898commandsEhhhh>
     ac4:	462b      	mov	r3, r5
     ac6:	462a      	mov	r2, r5
     ac8:	212b      	movs	r1, #43	; 0x2b
     aca:	4620      	mov	r0, r4
     acc:	e9cd 5900 	strd	r5, r9, [sp]
     ad0:	f7ff fe9e 	bl	810 <_ZN23my_st7789_spi_dc_cs_rst7commandEN9my_st77898commandsEhhhh>
     ad4:	2121      	movs	r1, #33	; 0x21
     ad6:	4620      	mov	r0, r4
     ad8:	f7ff fe30 	bl	73c <_ZN23my_st7789_spi_dc_cs_rst7commandEN9my_st77898commandsE>
     adc:	200a      	movs	r0, #10
     ade:	f7ff fc43 	bl	368 <_ZN5hwlib7wait_msEi>
     ae2:	2113      	movs	r1, #19
     ae4:	4620      	mov	r0, r4
     ae6:	f7ff fe29 	bl	73c <_ZN23my_st7789_spi_dc_cs_rst7commandEN9my_st77898commandsE>
     aea:	2064      	movs	r0, #100	; 0x64
     aec:	f7ff fc3c 	bl	368 <_ZN5hwlib7wait_msEi>
     af0:	4620      	mov	r0, r4
     af2:	2129      	movs	r1, #41	; 0x29
     af4:	f7ff fe22 	bl	73c <_ZN23my_st7789_spi_dc_cs_rst7commandEN9my_st77898commandsE>
     af8:	2064      	movs	r0, #100	; 0x64
     afa:	f7ff fc35 	bl	368 <_ZN5hwlib7wait_msEi>
     afe:	2101      	movs	r1, #1
     b00:	4620      	mov	r0, r4
     b02:	f7ff fee5 	bl	8d0 <_ZN23my_st7789_spi_dc_cs_rst6clearsEb>
     b06:	4620      	mov	r0, r4
     b08:	f7ff fd99 	bl	63e <_ZN23my_st7789_spi_dc_cs_rst5flushEv>
     b0c:	4620      	mov	r0, r4
     b0e:	2100      	movs	r1, #0
     b10:	f7ff fede 	bl	8d0 <_ZN23my_st7789_spi_dc_cs_rst6clearsEb>
     b14:	4620      	mov	r0, r4
     b16:	f7ff fd92 	bl	63e <_ZN23my_st7789_spi_dc_cs_rst5flushEv>
     b1a:	e7f0      	b.n	afe <main+0x1b6>
     b1c:	20014044 	.word	0x20014044
     b20:	00001037 	.word	0x00001037
     b24:	00001038 	.word	0x00001038
     b28:	400e1200 	.word	0x400e1200
     b2c:	400e1a50 	.word	0x400e1a50
     b30:	0000101c 	.word	0x0000101c
     b34:	00000fec 	.word	0x00000fec
     b38:	00000fdc 	.word	0x00000fdc
     b3c:	2001403c 	.word	0x2001403c
     b40:	00001028 	.word	0x00001028
     b44:	20014040 	.word	0x20014040

00000b48 <__startup>:
     b48:	2100      	movs	r1, #0
     b4a:	b508      	push	{r3, lr}
     b4c:	4a0b      	ldr	r2, [pc, #44]	; (b7c <__startup+0x34>)
     b4e:	4b0c      	ldr	r3, [pc, #48]	; (b80 <__startup+0x38>)
     b50:	4293      	cmp	r3, r2
     b52:	d10a      	bne.n	b6a <__startup+0x22>
     b54:	2200      	movs	r2, #0
     b56:	490b      	ldr	r1, [pc, #44]	; (b84 <__startup+0x3c>)
     b58:	4b0b      	ldr	r3, [pc, #44]	; (b88 <__startup+0x40>)
     b5a:	480c      	ldr	r0, [pc, #48]	; (b8c <__startup+0x44>)
     b5c:	1a5b      	subs	r3, r3, r1
     b5e:	089b      	lsrs	r3, r3, #2
     b60:	429a      	cmp	r2, r3
     b62:	d105      	bne.n	b70 <__startup+0x28>
     b64:	f7ff fef0 	bl	948 <main>
     b68:	e7fe      	b.n	b68 <__startup+0x20>
     b6a:	f843 1b04 	str.w	r1, [r3], #4
     b6e:	e7ef      	b.n	b50 <__startup+0x8>
     b70:	f850 4022 	ldr.w	r4, [r0, r2, lsl #2]
     b74:	f841 4022 	str.w	r4, [r1, r2, lsl #2]
     b78:	3201      	adds	r2, #1
     b7a:	e7f1      	b.n	b60 <__startup+0x18>
     b7c:	20014030 	.word	0x20014030
     b80:	20014000 	.word	0x20014000
     b84:	20014030 	.word	0x20014030
     b88:	20014058 	.word	0x20014058
     b8c:	00001050 	.word	0x00001050

00000b90 <__aeabi_uldivmod>:
     b90:	b953      	cbnz	r3, ba8 <__aeabi_uldivmod+0x18>
     b92:	b94a      	cbnz	r2, ba8 <__aeabi_uldivmod+0x18>
     b94:	2900      	cmp	r1, #0
     b96:	bf08      	it	eq
     b98:	2800      	cmpeq	r0, #0
     b9a:	bf1c      	itt	ne
     b9c:	f04f 31ff 	movne.w	r1, #4294967295	; 0xffffffff
     ba0:	f04f 30ff 	movne.w	r0, #4294967295	; 0xffffffff
     ba4:	f000 b974 	b.w	e90 <__aeabi_ldiv0>
     ba8:	f1ad 0c08 	sub.w	ip, sp, #8
     bac:	e96d ce04 	strd	ip, lr, [sp, #-16]!
     bb0:	f000 f806 	bl	bc0 <__udivmoddi4>
     bb4:	f8dd e004 	ldr.w	lr, [sp, #4]
     bb8:	e9dd 2302 	ldrd	r2, r3, [sp, #8]
     bbc:	b004      	add	sp, #16
     bbe:	4770      	bx	lr

00000bc0 <__udivmoddi4>:
     bc0:	e92d 47f0 	stmdb	sp!, {r4, r5, r6, r7, r8, r9, sl, lr}
     bc4:	468c      	mov	ip, r1
     bc6:	4604      	mov	r4, r0
     bc8:	9e08      	ldr	r6, [sp, #32]
     bca:	2b00      	cmp	r3, #0
     bcc:	d14b      	bne.n	c66 <__udivmoddi4+0xa6>
     bce:	428a      	cmp	r2, r1
     bd0:	4615      	mov	r5, r2
     bd2:	d967      	bls.n	ca4 <__udivmoddi4+0xe4>
     bd4:	fab2 f282 	clz	r2, r2
     bd8:	b14a      	cbz	r2, bee <__udivmoddi4+0x2e>
     bda:	f1c2 0720 	rsb	r7, r2, #32
     bde:	fa01 f302 	lsl.w	r3, r1, r2
     be2:	fa20 f707 	lsr.w	r7, r0, r7
     be6:	4095      	lsls	r5, r2
     be8:	ea47 0c03 	orr.w	ip, r7, r3
     bec:	4094      	lsls	r4, r2
     bee:	ea4f 4e15 	mov.w	lr, r5, lsr #16
     bf2:	fbbc f7fe 	udiv	r7, ip, lr
     bf6:	fa1f f885 	uxth.w	r8, r5
     bfa:	fb0e c317 	mls	r3, lr, r7, ip
     bfe:	fb07 f908 	mul.w	r9, r7, r8
     c02:	0c21      	lsrs	r1, r4, #16
     c04:	ea41 4303 	orr.w	r3, r1, r3, lsl #16
     c08:	4599      	cmp	r9, r3
     c0a:	d909      	bls.n	c20 <__udivmoddi4+0x60>
     c0c:	18eb      	adds	r3, r5, r3
     c0e:	f107 31ff 	add.w	r1, r7, #4294967295	; 0xffffffff
     c12:	f080 811c 	bcs.w	e4e <__udivmoddi4+0x28e>
     c16:	4599      	cmp	r9, r3
     c18:	f240 8119 	bls.w	e4e <__udivmoddi4+0x28e>
     c1c:	3f02      	subs	r7, #2
     c1e:	442b      	add	r3, r5
     c20:	eba3 0309 	sub.w	r3, r3, r9
     c24:	fbb3 f0fe 	udiv	r0, r3, lr
     c28:	fb0e 3310 	mls	r3, lr, r0, r3
     c2c:	fb00 f108 	mul.w	r1, r0, r8
     c30:	b2a4      	uxth	r4, r4
     c32:	ea44 4403 	orr.w	r4, r4, r3, lsl #16
     c36:	42a1      	cmp	r1, r4
     c38:	d909      	bls.n	c4e <__udivmoddi4+0x8e>
     c3a:	192c      	adds	r4, r5, r4
     c3c:	f100 33ff 	add.w	r3, r0, #4294967295	; 0xffffffff
     c40:	f080 8107 	bcs.w	e52 <__udivmoddi4+0x292>
     c44:	42a1      	cmp	r1, r4
     c46:	f240 8104 	bls.w	e52 <__udivmoddi4+0x292>
     c4a:	3802      	subs	r0, #2
     c4c:	442c      	add	r4, r5
     c4e:	ea40 4007 	orr.w	r0, r0, r7, lsl #16
     c52:	2700      	movs	r7, #0
     c54:	1a64      	subs	r4, r4, r1
     c56:	b11e      	cbz	r6, c60 <__udivmoddi4+0xa0>
     c58:	2300      	movs	r3, #0
     c5a:	40d4      	lsrs	r4, r2
     c5c:	e9c6 4300 	strd	r4, r3, [r6]
     c60:	4639      	mov	r1, r7
     c62:	e8bd 87f0 	ldmia.w	sp!, {r4, r5, r6, r7, r8, r9, sl, pc}
     c66:	428b      	cmp	r3, r1
     c68:	d909      	bls.n	c7e <__udivmoddi4+0xbe>
     c6a:	2e00      	cmp	r6, #0
     c6c:	f000 80ec 	beq.w	e48 <__udivmoddi4+0x288>
     c70:	2700      	movs	r7, #0
     c72:	e9c6 0100 	strd	r0, r1, [r6]
     c76:	4638      	mov	r0, r7
     c78:	4639      	mov	r1, r7
     c7a:	e8bd 87f0 	ldmia.w	sp!, {r4, r5, r6, r7, r8, r9, sl, pc}
     c7e:	fab3 f783 	clz	r7, r3
     c82:	2f00      	cmp	r7, #0
     c84:	d148      	bne.n	d18 <__udivmoddi4+0x158>
     c86:	428b      	cmp	r3, r1
     c88:	d302      	bcc.n	c90 <__udivmoddi4+0xd0>
     c8a:	4282      	cmp	r2, r0
     c8c:	f200 80fb 	bhi.w	e86 <__udivmoddi4+0x2c6>
     c90:	1a84      	subs	r4, r0, r2
     c92:	eb61 0303 	sbc.w	r3, r1, r3
     c96:	2001      	movs	r0, #1
     c98:	469c      	mov	ip, r3
     c9a:	2e00      	cmp	r6, #0
     c9c:	d0e0      	beq.n	c60 <__udivmoddi4+0xa0>
     c9e:	e9c6 4c00 	strd	r4, ip, [r6]
     ca2:	e7dd      	b.n	c60 <__udivmoddi4+0xa0>
     ca4:	b902      	cbnz	r2, ca8 <__udivmoddi4+0xe8>
     ca6:	deff      	udf	#255	; 0xff
     ca8:	fab2 f282 	clz	r2, r2
     cac:	2a00      	cmp	r2, #0
     cae:	f040 808f 	bne.w	dd0 <__udivmoddi4+0x210>
     cb2:	2701      	movs	r7, #1
     cb4:	1b49      	subs	r1, r1, r5
     cb6:	ea4f 4815 	mov.w	r8, r5, lsr #16
     cba:	fa1f f985 	uxth.w	r9, r5
     cbe:	fbb1 fef8 	udiv	lr, r1, r8
     cc2:	fb08 111e 	mls	r1, r8, lr, r1
     cc6:	fb09 f00e 	mul.w	r0, r9, lr
     cca:	ea4f 4c14 	mov.w	ip, r4, lsr #16
     cce:	ea4c 4301 	orr.w	r3, ip, r1, lsl #16
     cd2:	4298      	cmp	r0, r3
     cd4:	d907      	bls.n	ce6 <__udivmoddi4+0x126>
     cd6:	18eb      	adds	r3, r5, r3
     cd8:	f10e 31ff 	add.w	r1, lr, #4294967295	; 0xffffffff
     cdc:	d202      	bcs.n	ce4 <__udivmoddi4+0x124>
     cde:	4298      	cmp	r0, r3
     ce0:	f200 80cd 	bhi.w	e7e <__udivmoddi4+0x2be>
     ce4:	468e      	mov	lr, r1
     ce6:	1a1b      	subs	r3, r3, r0
     ce8:	fbb3 f0f8 	udiv	r0, r3, r8
     cec:	fb08 3310 	mls	r3, r8, r0, r3
     cf0:	fb09 f900 	mul.w	r9, r9, r0
     cf4:	b2a4      	uxth	r4, r4
     cf6:	ea44 4403 	orr.w	r4, r4, r3, lsl #16
     cfa:	45a1      	cmp	r9, r4
     cfc:	d907      	bls.n	d0e <__udivmoddi4+0x14e>
     cfe:	192c      	adds	r4, r5, r4
     d00:	f100 33ff 	add.w	r3, r0, #4294967295	; 0xffffffff
     d04:	d202      	bcs.n	d0c <__udivmoddi4+0x14c>
     d06:	45a1      	cmp	r9, r4
     d08:	f200 80b6 	bhi.w	e78 <__udivmoddi4+0x2b8>
     d0c:	4618      	mov	r0, r3
     d0e:	eba4 0409 	sub.w	r4, r4, r9
     d12:	ea40 400e 	orr.w	r0, r0, lr, lsl #16
     d16:	e79e      	b.n	c56 <__udivmoddi4+0x96>
     d18:	f1c7 0520 	rsb	r5, r7, #32
     d1c:	40bb      	lsls	r3, r7
     d1e:	fa22 fc05 	lsr.w	ip, r2, r5
     d22:	ea4c 0c03 	orr.w	ip, ip, r3
     d26:	fa21 f405 	lsr.w	r4, r1, r5
     d2a:	ea4f 4e1c 	mov.w	lr, ip, lsr #16
     d2e:	fbb4 f9fe 	udiv	r9, r4, lr
     d32:	fa1f f88c 	uxth.w	r8, ip
     d36:	fb0e 4419 	mls	r4, lr, r9, r4
     d3a:	fa20 f305 	lsr.w	r3, r0, r5
     d3e:	40b9      	lsls	r1, r7
     d40:	fb09 fa08 	mul.w	sl, r9, r8
     d44:	4319      	orrs	r1, r3
     d46:	0c0b      	lsrs	r3, r1, #16
     d48:	ea43 4404 	orr.w	r4, r3, r4, lsl #16
     d4c:	45a2      	cmp	sl, r4
     d4e:	fa02 f207 	lsl.w	r2, r2, r7
     d52:	fa00 f307 	lsl.w	r3, r0, r7
     d56:	d90b      	bls.n	d70 <__udivmoddi4+0x1b0>
     d58:	eb1c 0404 	adds.w	r4, ip, r4
     d5c:	f109 30ff 	add.w	r0, r9, #4294967295	; 0xffffffff
     d60:	f080 8088 	bcs.w	e74 <__udivmoddi4+0x2b4>
     d64:	45a2      	cmp	sl, r4
     d66:	f240 8085 	bls.w	e74 <__udivmoddi4+0x2b4>
     d6a:	f1a9 0902 	sub.w	r9, r9, #2
     d6e:	4464      	add	r4, ip
     d70:	eba4 040a 	sub.w	r4, r4, sl
     d74:	fbb4 f0fe 	udiv	r0, r4, lr
     d78:	fb0e 4410 	mls	r4, lr, r0, r4
     d7c:	fb00 fa08 	mul.w	sl, r0, r8
     d80:	b289      	uxth	r1, r1
     d82:	ea41 4404 	orr.w	r4, r1, r4, lsl #16
     d86:	45a2      	cmp	sl, r4
     d88:	d908      	bls.n	d9c <__udivmoddi4+0x1dc>
     d8a:	eb1c 0404 	adds.w	r4, ip, r4
     d8e:	f100 31ff 	add.w	r1, r0, #4294967295	; 0xffffffff
     d92:	d26b      	bcs.n	e6c <__udivmoddi4+0x2ac>
     d94:	45a2      	cmp	sl, r4
     d96:	d969      	bls.n	e6c <__udivmoddi4+0x2ac>
     d98:	3802      	subs	r0, #2
     d9a:	4464      	add	r4, ip
     d9c:	ea40 4009 	orr.w	r0, r0, r9, lsl #16
     da0:	fba0 8902 	umull	r8, r9, r0, r2
     da4:	eba4 040a 	sub.w	r4, r4, sl
     da8:	454c      	cmp	r4, r9
     daa:	4641      	mov	r1, r8
     dac:	46ce      	mov	lr, r9
     dae:	d354      	bcc.n	e5a <__udivmoddi4+0x29a>
     db0:	d051      	beq.n	e56 <__udivmoddi4+0x296>
     db2:	2e00      	cmp	r6, #0
     db4:	d069      	beq.n	e8a <__udivmoddi4+0x2ca>
     db6:	1a5a      	subs	r2, r3, r1
     db8:	eb64 040e 	sbc.w	r4, r4, lr
     dbc:	fa04 f505 	lsl.w	r5, r4, r5
     dc0:	fa22 f307 	lsr.w	r3, r2, r7
     dc4:	40fc      	lsrs	r4, r7
     dc6:	431d      	orrs	r5, r3
     dc8:	e9c6 5400 	strd	r5, r4, [r6]
     dcc:	2700      	movs	r7, #0
     dce:	e747      	b.n	c60 <__udivmoddi4+0xa0>
     dd0:	4095      	lsls	r5, r2
     dd2:	f1c2 0320 	rsb	r3, r2, #32
     dd6:	fa21 f003 	lsr.w	r0, r1, r3
     dda:	ea4f 4815 	mov.w	r8, r5, lsr #16
     dde:	fbb0 f7f8 	udiv	r7, r0, r8
     de2:	fa1f f985 	uxth.w	r9, r5
     de6:	fb08 0017 	mls	r0, r8, r7, r0
     dea:	fa24 f303 	lsr.w	r3, r4, r3
     dee:	4091      	lsls	r1, r2
     df0:	fb07 fc09 	mul.w	ip, r7, r9
     df4:	430b      	orrs	r3, r1
     df6:	0c19      	lsrs	r1, r3, #16
     df8:	ea41 4100 	orr.w	r1, r1, r0, lsl #16
     dfc:	458c      	cmp	ip, r1
     dfe:	fa04 f402 	lsl.w	r4, r4, r2
     e02:	d907      	bls.n	e14 <__udivmoddi4+0x254>
     e04:	1869      	adds	r1, r5, r1
     e06:	f107 30ff 	add.w	r0, r7, #4294967295	; 0xffffffff
     e0a:	d231      	bcs.n	e70 <__udivmoddi4+0x2b0>
     e0c:	458c      	cmp	ip, r1
     e0e:	d92f      	bls.n	e70 <__udivmoddi4+0x2b0>
     e10:	3f02      	subs	r7, #2
     e12:	4429      	add	r1, r5
     e14:	eba1 010c 	sub.w	r1, r1, ip
     e18:	fbb1 f0f8 	udiv	r0, r1, r8
     e1c:	fb08 1c10 	mls	ip, r8, r0, r1
     e20:	fb00 fe09 	mul.w	lr, r0, r9
     e24:	b299      	uxth	r1, r3
     e26:	ea41 410c 	orr.w	r1, r1, ip, lsl #16
     e2a:	458e      	cmp	lr, r1
     e2c:	d907      	bls.n	e3e <__udivmoddi4+0x27e>
     e2e:	1869      	adds	r1, r5, r1
     e30:	f100 33ff 	add.w	r3, r0, #4294967295	; 0xffffffff
     e34:	d218      	bcs.n	e68 <__udivmoddi4+0x2a8>
     e36:	458e      	cmp	lr, r1
     e38:	d916      	bls.n	e68 <__udivmoddi4+0x2a8>
     e3a:	3802      	subs	r0, #2
     e3c:	4429      	add	r1, r5
     e3e:	eba1 010e 	sub.w	r1, r1, lr
     e42:	ea40 4707 	orr.w	r7, r0, r7, lsl #16
     e46:	e73a      	b.n	cbe <__udivmoddi4+0xfe>
     e48:	4637      	mov	r7, r6
     e4a:	4630      	mov	r0, r6
     e4c:	e708      	b.n	c60 <__udivmoddi4+0xa0>
     e4e:	460f      	mov	r7, r1
     e50:	e6e6      	b.n	c20 <__udivmoddi4+0x60>
     e52:	4618      	mov	r0, r3
     e54:	e6fb      	b.n	c4e <__udivmoddi4+0x8e>
     e56:	4543      	cmp	r3, r8
     e58:	d2ab      	bcs.n	db2 <__udivmoddi4+0x1f2>
     e5a:	ebb8 0102 	subs.w	r1, r8, r2
     e5e:	eb69 020c 	sbc.w	r2, r9, ip
     e62:	3801      	subs	r0, #1
     e64:	4696      	mov	lr, r2
     e66:	e7a4      	b.n	db2 <__udivmoddi4+0x1f2>
     e68:	4618      	mov	r0, r3
     e6a:	e7e8      	b.n	e3e <__udivmoddi4+0x27e>
     e6c:	4608      	mov	r0, r1
     e6e:	e795      	b.n	d9c <__udivmoddi4+0x1dc>
     e70:	4607      	mov	r7, r0
     e72:	e7cf      	b.n	e14 <__udivmoddi4+0x254>
     e74:	4681      	mov	r9, r0
     e76:	e77b      	b.n	d70 <__udivmoddi4+0x1b0>
     e78:	3802      	subs	r0, #2
     e7a:	442c      	add	r4, r5
     e7c:	e747      	b.n	d0e <__udivmoddi4+0x14e>
     e7e:	f1ae 0e02 	sub.w	lr, lr, #2
     e82:	442b      	add	r3, r5
     e84:	e72f      	b.n	ce6 <__udivmoddi4+0x126>
     e86:	4638      	mov	r0, r7
     e88:	e707      	b.n	c9a <__udivmoddi4+0xda>
     e8a:	4637      	mov	r7, r6
     e8c:	e6e8      	b.n	c60 <__udivmoddi4+0xa0>
     e8e:	bf00      	nop

00000e90 <__aeabi_ldiv0>:
     e90:	4770      	bx	lr
     e92:	bf00      	nop
     e94:	2e2f2e2e 	.word	0x2e2f2e2e
     e98:	77682f2e 	.word	0x77682f2e
     e9c:	2f62696c 	.word	0x2f62696c
     ea0:	7262696c 	.word	0x7262696c
     ea4:	2f797261 	.word	0x2f797261
     ea8:	67726174 	.word	0x67726174
     eac:	2f737465 	.word	0x2f737465
     eb0:	696c7768 	.word	0x696c7768
     eb4:	72612d62 	.word	0x72612d62
     eb8:	6e697564 	.word	0x6e697564
     ebc:	75642d6f 	.word	0x75642d6f
     ec0:	70682e65 	.word	0x70682e65
     ec4:	0070      	.short	0x0070

00000ec6 <_ZZN3due8pin_infoENS_4pinsEE14pin_info_array>:
     ec6:	0800 0900 1901 1c02 1a02 1902 1802 1702     ................
     ed6:	1602 1502 1d02 0703 0803 1b01 0403 0503     ................
     ee6:	0d00 0c00 0b00 0a00 0c01 0d01 1a01 0e00     ................
     ef6:	0f00 0003 0103 0203 0303 0603 0903 0700     ................
     f06:	0a03 0102 0202 0302 0402 0502 0602 0702     ................
     f16:	0802 0902 1300 1400 1302 1202 1102 1002     ................
     f26:	0f02 0e02 0d02 0c02 1501 0e01 1000 1800     ................
     f36:	1700 1600 0600 0400 0300 0200 1101 1201     ................
     f46:	1301 1401 0f01 1001 0100 0000 0d01 0c01     ................
     f56:	1200 1100 0900 0800 1b01 1b00 1900 1a00     ................
     f66:	1d02 1a02 3e0a 203e 6146 6174 206c 7265     .....>> Fatal er
     f76:	6f72 3a72 0020 6174 6b73 6e20 746f 6220     ror: .task not b
     f86:	6f6c 6b63 6465 6220 2079 7469 6573 666c     locked by itself
     f96:	7200 6e75 696e 676e 7420 7361 206b 7369     .running task is
     fa6:	6e20 746f 5220 4145 5944 3f21 0000           not READY!?..

00000fb4 <_ZTVN5hwlib14pin_in_dummy_tE>:
	...
     fbc:	037f 0000 0383 0000                         ........

00000fc4 <_ZTVN5hwlib15pin_out_dummy_tE>:
	...
     fcc:	0385 0000 0387 0000                         ........

00000fd4 <_ZTVN5hwlib20pin_direct_from_in_tE>:
	...
     fdc:	0389 0000 03a1 0000                         ........

00000fe4 <_ZTVN5hwlib21pin_direct_from_out_tE>:
	...
     fec:	03a3 0000 03bb 0000                         ........

00000ff4 <_ZTVN5hwlib20cout_using_uart_putcE>:
	...
     ffc:	0569 0000 03bd 0000                         i.......

00001004 <_ZTVN3due7pin_outE>:
	...
    100c:	05ab 0000 05b9 0000                         ........

00001014 <_ZTV36my_spi_bus_bit_banged_sclk_mosi_miso>:
	...
    101c:	05bd 0000                                   ....

00001020 <_ZTV23my_st7789_spi_dc_cs_rst>:
	...
    1028:	05f5 0000 03bf 0000 0431 0000 063f 0000     ........1...?...
    1038:	5453 3737 3938 6420 6d65 0a6f 0000 0000     ST7789 demo.....
